target datalayout = "e-m:e-p270:32:32-p271:32:32-p272:64:64-i64:64-i128:128-f80:128-n8:16:32:64-S128"
target triple = "x86_64-pc-linux-gnu"

%struct.mac_is_channel = type { i8, i32 }

; Function Attrs: nounwind null_pointer_is_valid sspstrong uwtable
define internal i32 @mac_is_channel_hash(ptr noundef %0) #0 {
  %2 = alloca ptr, align 8
  %3 = alloca ptr, align 8
  store ptr %0, ptr %2, align 8
  call void @llvm.lifetime.start.p0(i64 8, ptr %3) #11
  %4 = load ptr, ptr %2, align 8
  store ptr %4, ptr %3, align 8
  %5 = load ptr, ptr %3, align 8
  %6 = getelementptr inbounds nuw %struct.mac_is_channel, ptr %5, i32 0, i32 1
  %7 = load i32, ptr %6, align 4
  %8 = shl i32 %7, 4
  %9 = load ptr, ptr %3, align 8
  %10 = getelementptr inbounds nuw %struct.mac_is_channel, ptr %9, i32 0, i32 0
  %11 = load i8, ptr %10, align 4
  %12 = zext i8 %11 to i32
  %13 = or i32 %8, %12
  call void @llvm.lifetime.end.p0(i64 8, ptr %3) #11
  ret i32 %13
}