; Function Attrs: mustprogress nofree norecurse nosync nounwind null_pointer_is_valid sspstrong willreturn memory(argmem: read) uwtable
define internal i32 @mac_is_channel_hash(ptr noundef readonly captures(none) %0) #6 {
  %2 = getelementptr inbounds nuw i8, ptr %0, i64 4
  %3 = load i32, ptr %2, align 4
  %4 = shl i32 %3, 4
  %5 = load i8, ptr %0, align 4
  %6 = zext i8 %5 to i32
  %7 = or i32 %4, %6
  ret i32 %7
}